target datalayout = "e-m:e-p270:32:32-p271:32:32-p272:64:64-i64:64-i128:128-f80:128-n8:16:32:64-S128"
target triple = "x86_64-pc-linux-gnu"

; Function Attrs: nounwind ssp uwtable
define dso_local i32 @crypto_secretbox_xchacha20poly1305_open_easy(ptr noundef %0, ptr noundef nonnull %1, i64 noundef %2, ptr noundef nonnull %3, ptr noundef nonnull %4) #0 {
  %6 = alloca i32, align 4
  %7 = alloca ptr, align 8
  %8 = alloca ptr, align 8
  %9 = alloca i64, align 8
  %10 = alloca ptr, align 8
  %11 = alloca ptr, align 8
  store ptr %0, ptr %7, align 8
  store ptr %1, ptr %8, align 8
  store i64 %2, ptr %9, align 8
  store ptr %3, ptr %10, align 8
  store ptr %4, ptr %11, align 8
  %12 = load i64, ptr %9, align 8
  %13 = icmp ult i64 %12, 16
  br i1 %13, label %14, label %15

14:                                               ; preds = %5
  store i32 -1, ptr %6, align 4
  br label %25

15:                                               ; preds = %5
  %16 = load ptr, ptr %7, align 8
  %17 = load ptr, ptr %8, align 8
  %18 = getelementptr i8, ptr %17, i64 16
  %19 = load ptr, ptr %8, align 8
  %20 = load i64, ptr %9, align 8
  %21 = sub i64 %20, 16
  %22 = load ptr, ptr %10, align 8
  %23 = load ptr, ptr %11, align 8
  %24 = call i32 @crypto_secretbox_xchacha20poly1305_open_detached(ptr noundef %16, ptr noundef %18, ptr noundef %19, i64 noundef %21, ptr noundef %22, ptr noundef %23)
  store i32 %24, ptr %6, align 4
  br label %25

25:                                               ; preds = %15, %14
  %26 = load i32, ptr %6, align 4
  ret i32 %26
}